; ModuleID = '27/1638.c'
source_filename = "27/1638.c"
target datalayout = "e-m:e-p270:32:32-p271:32:32-p272:64:64-i64:64-f80:128-n8:16:32:64-S128"
target triple = "x86_64-pc-linux-gnu"

@.str = private unnamed_addr constant [3 x i8] c"%d\00", align 1
@.str.1 = private unnamed_addr constant [10 x i8] c"%lf%lf%lf\00", align 1
@.str.2 = private unnamed_addr constant [19 x i8] c"x1=%.5lf;x2=%.5lf\0A\00", align 1
@.str.3 = private unnamed_addr constant [13 x i8] c"x1=x2=%.5lf\0A\00", align 1
@.str.4 = private unnamed_addr constant [33 x i8] c"x1=%.5lf+%.5lfi;x2=%.5lf-%.5lfi\0A\00", align 1

; Function Attrs: noinline nounwind uwtable
define dso_local i32 @main() #0 {
  %1 = alloca i32, align 4
  %2 = alloca i32, align 4
  %3 = alloca [100 x double], align 16
  %4 = alloca [100 x double], align 16
  %5 = alloca [100 x double], align 16
  %6 = alloca double, align 8
  %7 = alloca [100 x double], align 16
  %8 = alloca [100 x double], align 16
  %9 = alloca double, align 8
  %10 = alloca double, align 8
  %11 = alloca i32, align 4
  store i32 0, i32* %1, align 4
  %12 = call i32 (i8*, ...) @__isoc99_scanf(i8* getelementptr inbounds ([3 x i8], [3 x i8]* @.str, i64 0, i64 0), i32* %2)
  store i32 0, i32* %11, align 4
  br label %13

13:                                               ; preds = %28, %0
  %14 = load i32, i32* %11, align 4
  %15 = load i32, i32* %2, align 4
  %16 = icmp slt i32 %14, %15
  br i1 %16, label %17, label %31

17:                                               ; preds = %13
  %18 = load i32, i32* %11, align 4
  %19 = sext i32 %18 to i64
  %20 = getelementptr inbounds [100 x double], [100 x double]* %3, i64 0, i64 %19
  %21 = load i32, i32* %11, align 4
  %22 = sext i32 %21 to i64
  %23 = getelementptr inbounds [100 x double], [100 x double]* %4, i64 0, i64 %22
  %24 = load i32, i32* %11, align 4
  %25 = sext i32 %24 to i64
  %26 = getelementptr inbounds [100 x double], [100 x double]* %5, i64 0, i64 %25
  %27 = call i32 (i8*, ...) @__isoc99_scanf(i8* getelementptr inbounds ([10 x i8], [10 x i8]* @.str.1, i64 0, i64 0), double* %20, double* %23, double* %26)
  br label %28

28:                                               ; preds = %17
  %29 = load i32, i32* %11, align 4
  %30 = add nsw i32 %29, 1
  store i32 %30, i32* %11, align 4
  br label %13

31:                                               ; preds = %13
  store i32 0, i32* %11, align 4
  br label %32

32:                                               ; preds = %157, %31
  %33 = load i32, i32* %11, align 4
  %34 = load i32, i32* %2, align 4
  %35 = icmp slt i32 %33, %34
  br i1 %35, label %36, label %160

36:                                               ; preds = %32
  %37 = load i32, i32* %11, align 4
  %38 = sext i32 %37 to i64
  %39 = getelementptr inbounds [100 x double], [100 x double]* %4, i64 0, i64 %38
  %40 = load double, double* %39, align 8
  %41 = load i32, i32* %11, align 4
  %42 = sext i32 %41 to i64
  %43 = getelementptr inbounds [100 x double], [100 x double]* %4, i64 0, i64 %42
  %44 = load double, double* %43, align 8
  %45 = fmul double %40, %44
  %46 = load i32, i32* %11, align 4
  %47 = sext i32 %46 to i64
  %48 = getelementptr inbounds [100 x double], [100 x double]* %3, i64 0, i64 %47
  %49 = load double, double* %48, align 8
  %50 = fmul double 4.000000e+00, %49
  %51 = load i32, i32* %11, align 4
  %52 = sext i32 %51 to i64
  %53 = getelementptr inbounds [100 x double], [100 x double]* %5, i64 0, i64 %52
  %54 = load double, double* %53, align 8
  %55 = fmul double %50, %54
  %56 = fsub double %45, %55
  store double %56, double* %6, align 8
  %57 = load double, double* %6, align 8
  %58 = fcmp ogt double %57, 0.000000e+00
  br i1 %58, label %59, label %103

59:                                               ; preds = %36
  %60 = load i32, i32* %11, align 4
  %61 = sext i32 %60 to i64
  %62 = getelementptr inbounds [100 x double], [100 x double]* %4, i64 0, i64 %61
  %63 = load double, double* %62, align 8
  %64 = fneg double %63
  %65 = load double, double* %6, align 8
  %66 = call double @sqrt(double %65) #3
  %67 = fadd double %64, %66
  %68 = load i32, i32* %11, align 4
  %69 = sext i32 %68 to i64
  %70 = getelementptr inbounds [100 x double], [100 x double]* %3, i64 0, i64 %69
  %71 = load double, double* %70, align 8
  %72 = fmul double 2.000000e+00, %71
  %73 = fdiv double %67, %72
  %74 = load i32, i32* %11, align 4
  %75 = sext i32 %74 to i64
  %76 = getelementptr inbounds [100 x double], [100 x double]* %7, i64 0, i64 %75
  store double %73, double* %76, align 8
  %77 = load i32, i32* %11, align 4
  %78 = sext i32 %77 to i64
  %79 = getelementptr inbounds [100 x double], [100 x double]* %4, i64 0, i64 %78
  %80 = load double, double* %79, align 8
  %81 = fneg double %80
  %82 = load double, double* %6, align 8
  %83 = call double @sqrt(double %82) #3
  %84 = fsub double %81, %83
  %85 = load i32, i32* %11, align 4
  %86 = sext i32 %85 to i64
  %87 = getelementptr inbounds [100 x double], [100 x double]* %3, i64 0, i64 %86
  %88 = load double, double* %87, align 8
  %89 = fmul double 2.000000e+00, %88
  %90 = fdiv double %84, %89
  %91 = load i32, i32* %11, align 4
  %92 = sext i32 %91 to i64
  %93 = getelementptr inbounds [100 x double], [100 x double]* %8, i64 0, i64 %92
  store double %90, double* %93, align 8
  %94 = load i32, i32* %11, align 4
  %95 = sext i32 %94 to i64
  %96 = getelementptr inbounds [100 x double], [100 x double]* %7, i64 0, i64 %95
  %97 = load double, double* %96, align 8
  %98 = load i32, i32* %11, align 4
  %99 = sext i32 %98 to i64
  %100 = getelementptr inbounds [100 x double], [100 x double]* %8, i64 0, i64 %99
  %101 = load double, double* %100, align 8
  %102 = call i32 (i8*, ...) @printf(i8* getelementptr inbounds ([19 x i8], [19 x i8]* @.str.2, i64 0, i64 0), double %97, double %101)
  br label %156

103:                                              ; preds = %36
  %104 = load double, double* %6, align 8
  %105 = fcmp oeq double %104, 0.000000e+00
  br i1 %105, label %106, label %129

106:                                              ; preds = %103
  %107 = load i32, i32* %11, align 4
  %108 = sext i32 %107 to i64
  %109 = getelementptr inbounds [100 x double], [100 x double]* %4, i64 0, i64 %108
  %110 = load double, double* %109, align 8
  %111 = fneg double %110
  %112 = load i32, i32* %11, align 4
  %113 = sext i32 %112 to i64
  %114 = getelementptr inbounds [100 x double], [100 x double]* %3, i64 0, i64 %113
  %115 = load double, double* %114, align 8
  %116 = fmul double 2.000000e+00, %115
  %117 = fdiv double %111, %116
  %118 = load i32, i32* %11, align 4
  %119 = sext i32 %118 to i64
  %120 = getelementptr inbounds [100 x double], [100 x double]* %8, i64 0, i64 %119
  store double %117, double* %120, align 8
  %121 = load i32, i32* %11, align 4
  %122 = sext i32 %121 to i64
  %123 = getelementptr inbounds [100 x double], [100 x double]* %7, i64 0, i64 %122
  store double %117, double* %123, align 8
  %124 = load i32, i32* %11, align 4
  %125 = sext i32 %124 to i64
  %126 = getelementptr inbounds [100 x double], [100 x double]* %7, i64 0, i64 %125
  %127 = load double, double* %126, align 8
  %128 = call i32 (i8*, ...) @printf(i8* getelementptr inbounds ([13 x i8], [13 x i8]* @.str.3, i64 0, i64 0), double %127)
  br label %155

129:                                              ; preds = %103
  %130 = load i32, i32* %11, align 4
  %131 = sext i32 %130 to i64
  %132 = getelementptr inbounds [100 x double], [100 x double]* %4, i64 0, i64 %131
  %133 = load double, double* %132, align 8
  %134 = fneg double %133
  %135 = load i32, i32* %11, align 4
  %136 = sext i32 %135 to i64
  %137 = getelementptr inbounds [100 x double], [100 x double]* %3, i64 0, i64 %136
  %138 = load double, double* %137, align 8
  %139 = fmul double 2.000000e+00, %138
  %140 = fdiv double %134, %139
  store double %140, double* %9, align 8
  %141 = load double, double* %6, align 8
  %142 = fneg double %141
  %143 = call double @sqrt(double %142) #3
  %144 = load i32, i32* %11, align 4
  %145 = sext i32 %144 to i64
  %146 = getelementptr inbounds [100 x double], [100 x double]* %3, i64 0, i64 %145
  %147 = load double, double* %146, align 8
  %148 = fmul double 2.000000e+00, %147
  %149 = fdiv double %143, %148
  store double %149, double* %10, align 8
  %150 = load double, double* %9, align 8
  %151 = load double, double* %10, align 8
  %152 = load double, double* %9, align 8
  %153 = load double, double* %10, align 8
  %154 = call i32 (i8*, ...) @printf(i8* getelementptr inbounds ([33 x i8], [33 x i8]* @.str.4, i64 0, i64 0), double %150, double %151, double %152, double %153)
  br label %155

155:                                              ; preds = %129, %106
  br label %156

156:                                              ; preds = %155, %59
  br label %157

157:                                              ; preds = %156
  %158 = load i32, i32* %11, align 4
  %159 = add nsw i32 %158, 1
  store i32 %159, i32* %11, align 4
  br label %32

160:                                              ; preds = %32
  ret i32 0
}

declare dso_local i32 @__isoc99_scanf(i8*, ...) #1

; Function Attrs: nounwind
declare dso_local double @sqrt(double) #2

declare dso_local i32 @printf(i8*, ...) #1


!llvm.module.flags = !{!0}
!llvm.ident = !{!1}

!0 = !{i32 1, !"wchar_size", i32 4}
!1 = !{!"clang version 10.0.0-4ubuntu1 "}
